; Function Attrs: mustprogress nofree nounwind willreturn memory(readwrite, inaccessiblemem: write) uwtable
define hidden noundef double @_ZNK3p2t5Sweep10BasinAngleERKNS_4NodeE(ptr noundef nonnull readnone align 8 captures(none) dereferenceable(24) %0, ptr noundef nonnull readonly align 8 captures(none) dereferenceable(40) %1) local_unnamed_addr #8 align 2 {
  %3 = load ptr, ptr %1, align 8
  %4 = load double, ptr %3, align 8
  %5 = getelementptr inbounds nuw i8, ptr %1, i64 16
  %6 = load ptr, ptr %5, align 8
  %7 = getelementptr inbounds nuw i8, ptr %6, i64 16
  %8 = load ptr, ptr %7, align 8
  %9 = load ptr, ptr %8, align 8
  %10 = load double, ptr %9, align 8
  %11 = fsub double %4, %10
  %12 = getelementptr inbounds nuw i8, ptr %3, i64 8
  %13 = load double, ptr %12, align 8
  %14 = getelementptr inbounds nuw i8, ptr %9, i64 8
  %15 = load double, ptr %14, align 8
  %16 = fsub double %13, %15
  %17 = tail call double @atan2(double noundef %16, double noundef %11) #20
  ret double %17
}